; ModuleID = '53/186.c'
source_filename = "53/186.c"
target datalayout = "e-m:e-p270:32:32-p271:32:32-p272:64:64-i64:64-f80:128-n8:16:32:64-S128"
target triple = "x86_64-pc-linux-gnu"

@.str = private unnamed_addr constant [4 x i8] c"%d\0A\00", align 1
@.str.1 = private unnamed_addr constant [3 x i8] c"%d\00", align 1
@.str.2 = private unnamed_addr constant [4 x i8] c",%d\00", align 1

; Function Attrs: noinline nounwind uwtable
define dso_local void @main() #0 {
  %1 = alloca [300 x i32], align 16
  %2 = alloca i32, align 4
  %3 = alloca i32, align 4
  %4 = alloca i32, align 4
  %5 = alloca i32, align 4
  %6 = call i32 (i8*, ...) @__isoc99_scanf(i8* getelementptr inbounds ([4 x i8], [4 x i8]* @.str, i64 0, i64 0), i32* %2)
  store i32 0, i32* %3, align 4
  br label %7

7:                                                ; preds = %16, %0
  %8 = load i32, i32* %3, align 4
  %9 = load i32, i32* %2, align 4
  %10 = icmp slt i32 %8, %9
  br i1 %10, label %11, label %19

11:                                               ; preds = %7
  %12 = load i32, i32* %3, align 4
  %13 = sext i32 %12 to i64
  %14 = getelementptr inbounds [300 x i32], [300 x i32]* %1, i64 0, i64 %13
  %15 = call i32 (i8*, ...) @__isoc99_scanf(i8* getelementptr inbounds ([3 x i8], [3 x i8]* @.str.1, i64 0, i64 0), i32* %14)
  br label %16

16:                                               ; preds = %11
  %17 = load i32, i32* %3, align 4
  %18 = add nsw i32 %17, 1
  store i32 %18, i32* %3, align 4
  br label %7

19:                                               ; preds = %7
  %20 = getelementptr inbounds [300 x i32], [300 x i32]* %1, i64 0, i64 0
  %21 = load i32, i32* %20, align 16
  %22 = call i32 (i8*, ...) @printf(i8* getelementptr inbounds ([3 x i8], [3 x i8]* @.str.1, i64 0, i64 0), i32 %21)
  store i32 1, i32* %3, align 4
  br label %23

23:                                               ; preds = %60, %19
  %24 = load i32, i32* %3, align 4
  %25 = load i32, i32* %2, align 4
  %26 = icmp slt i32 %24, %25
  br i1 %26, label %27, label %63

27:                                               ; preds = %23
  store i32 0, i32* %5, align 4
  store i32 0, i32* %4, align 4
  br label %28

28:                                               ; preds = %46, %27
  %29 = load i32, i32* %4, align 4
  %30 = load i32, i32* %3, align 4
  %31 = icmp slt i32 %29, %30
  br i1 %31, label %32, label %49

32:                                               ; preds = %28
  %33 = load i32, i32* %3, align 4
  %34 = sext i32 %33 to i64
  %35 = getelementptr inbounds [300 x i32], [300 x i32]* %1, i64 0, i64 %34
  %36 = load i32, i32* %35, align 4
  %37 = load i32, i32* %4, align 4
  %38 = sext i32 %37 to i64
  %39 = getelementptr inbounds [300 x i32], [300 x i32]* %1, i64 0, i64 %38
  %40 = load i32, i32* %39, align 4
  %41 = icmp ne i32 %36, %40
  br i1 %41, label %42, label %45

42:                                               ; preds = %32
  %43 = load i32, i32* %5, align 4
  %44 = add nsw i32 %43, 1
  store i32 %44, i32* %5, align 4
  br label %45

45:                                               ; preds = %42, %32
  br label %46

46:                                               ; preds = %45
  %47 = load i32, i32* %4, align 4
  %48 = add nsw i32 %47, 1
  store i32 %48, i32* %4, align 4
  br label %28

49:                                               ; preds = %28
  %50 = load i32, i32* %5, align 4
  %51 = load i32, i32* %3, align 4
  %52 = icmp eq i32 %50, %51
  br i1 %52, label %53, label %59

53:                                               ; preds = %49
  %54 = load i32, i32* %3, align 4
  %55 = sext i32 %54 to i64
  %56 = getelementptr inbounds [300 x i32], [300 x i32]* %1, i64 0, i64 %55
  %57 = load i32, i32* %56, align 4
  %58 = call i32 (i8*, ...) @printf(i8* getelementptr inbounds ([4 x i8], [4 x i8]* @.str.2, i64 0, i64 0), i32 %57)
  br label %59

59:                                               ; preds = %53, %49
  br label %60

60:                                               ; preds = %59
  %61 = load i32, i32* %3, align 4
  %62 = add nsw i32 %61, 1
  store i32 %62, i32* %3, align 4
  br label %23

63:                                               ; preds = %23
  ret void
}

declare dso_local i32 @__isoc99_scanf(i8*, ...) #1

declare dso_local i32 @printf(i8*, ...) #1


!llvm.module.flags = !{!0}
!llvm.ident = !{!1}

!0 = !{i32 1, !"wchar_size", i32 4}
!1 = !{!"clang version 10.0.0-4ubuntu1 "}
